   1              		.arch armv7e-m
   2              		.fpu fpv4-sp-d16
   3              		.eabi_attribute 27, 1
   4              		.eabi_attribute 28, 1
   5              		.eabi_attribute 20, 1
   6              		.eabi_attribute 21, 1
   7              		.eabi_attribute 23, 3
   8              		.eabi_attribute 24, 1
   9              		.eabi_attribute 25, 1
  10              		.eabi_attribute 26, 1
  11              		.eabi_attribute 30, 4
  12              		.eabi_attribute 34, 1
  13              		.eabi_attribute 18, 4
  14              		.file	"button.c"
  15              		.text
  16              	.Ltext0:
  17              		.cfi_sections	.debug_frame
  18              		.file 1 "src/sys/button.c"
  19              		.align	1
  20              		.global	button_init
  21              		.syntax unified
  22              		.thumb
  23              		.thumb_func
  24              		.type	button_init, %function
  25              	button_init:
  26              	.LFB397:
   1:src/sys/button.c **** #include "sys/devices.h"
   2:src/sys/button.c **** #include "sys/cm4.h"
   3:src/sys/button.c **** #include "button.h"
   4:src/sys/button.c **** 
   5:src/sys/button.c **** void button_init() {
  27              		.loc 1 5 20 view -0
  28              		.cfi_startproc
  29              		@ args = 0, pretend = 0, frame = 0
  30              		@ frame_needed = 0, uses_anonymous_args = 0
  31              		@ link register save eliminated.
   6:src/sys/button.c **** /* Configure PB3-PB6, PB8 as inputs, no pull */
   7:src/sys/button.c **** 	GPIOB.MODER = GPIOB.MODER & ~(0xFF<<6 | 3<<16);
  32              		.loc 1 7 2 view .LVU1
  33              		.loc 1 7 21 is_stmt 0 view .LVU2
  34 0000 044B     		ldr	r3, .L2
  35              		.loc 1 7 28 view .LVU3
  36 0002 0549     		ldr	r1, .L2+4
  37              		.loc 1 7 21 view .LVU4
  38 0004 1A68     		ldr	r2, [r3]
  39              		.loc 1 7 28 view .LVU5
  40 0006 0A40     		ands	r2, r2, r1
  41              		.loc 1 7 14 view .LVU6
  42 0008 1A60     		str	r2, [r3]
   8:src/sys/button.c **** 	GPIOB.PUPDR = GPIOB.PUPDR & ~(0xFF<<6 | 3<<16);
  43              		.loc 1 8 2 is_stmt 1 view .LVU7
  44              		.loc 1 8 21 is_stmt 0 view .LVU8
  45 000a DA68     		ldr	r2, [r3, #12]
  46              		.loc 1 8 28 view .LVU9
  47 000c 0A40     		ands	r2, r2, r1
  48              		.loc 1 8 14 view .LVU10
  49 000e DA60     		str	r2, [r3, #12]
   9:src/sys/button.c **** }
  50              		.loc 1 9 1 view .LVU11
  51 0010 7047     		bx	lr
  52              	.L3:
  53 0012 00BF     		.align	2
  54              	.L2:
  55 0014 00000000 		.word	GPIOB
  56 0018 3FC0FCFF 		.word	-212929
  57              		.cfi_endproc
  58              	.LFE397:
  59              		.size	button_init, .-button_init
  60              		.align	1
  61              		.global	button_irq_init
  62              		.syntax unified
  63              		.thumb
  64              		.thumb_func
  65              		.type	button_irq_init, %function
  66              	button_irq_init:
  67              	.LFB398:
  10:src/sys/button.c **** 
  11:src/sys/button.c **** void button_irq_init () {
  68              		.loc 1 11 25 is_stmt 1 view -0
  69              		.cfi_startproc
  70              		@ args = 0, pretend = 0, frame = 0
  71              		@ frame_needed = 0, uses_anonymous_args = 0
  72              		@ link register save eliminated.
  12:src/sys/button.c ****   /* set PB8 as EXTI8 input */
  13:src/sys/button.c ****   SYSCFG.EXTICR3 = (SYSCFG.EXTICR3 & ~(0xf<<0)) | (0x1<<0);
  73              		.loc 1 13 3 view .LVU13
  74              		.loc 1 13 27 is_stmt 0 view .LVU14
  75 001c 0C4A     		ldr	r2, .L5
  76 001e 1369     		ldr	r3, [r2, #16]
  77              		.loc 1 13 36 view .LVU15
  78 0020 23F00F03 		bic	r3, r3, #15
  79              		.loc 1 13 49 view .LVU16
  80 0024 43F00103 		orr	r3, r3, #1
  81              		.loc 1 13 18 view .LVU17
  82 0028 1361     		str	r3, [r2, #16]
  14:src/sys/button.c **** 
  15:src/sys/button.c ****   /* Setup interrupt for EXTI8, falling edge */
  16:src/sys/button.c ****   EXTI.IMR  |= (1<<8);
  83              		.loc 1 16 3 is_stmt 1 view .LVU18
  84              		.loc 1 16 7 is_stmt 0 view .LVU19
  85 002a 0A4B     		ldr	r3, .L5+4
  86 002c 1A68     		ldr	r2, [r3]
  87              		.loc 1 16 13 view .LVU20
  88 002e 42F48072 		orr	r2, r2, #256
  89 0032 1A60     		str	r2, [r3]
  17:src/sys/button.c ****   EXTI.RTSR &= ~(1<<8);
  90              		.loc 1 17 3 is_stmt 1 view .LVU21
  91              		.loc 1 17 7 is_stmt 0 view .LVU22
  92 0034 9A68     		ldr	r2, [r3, #8]
  93              		.loc 1 17 13 view .LVU23
  94 0036 22F48072 		bic	r2, r2, #256
  95 003a 9A60     		str	r2, [r3, #8]
  18:src/sys/button.c ****   EXTI.FTSR |= (1<<8);
  96              		.loc 1 18 3 is_stmt 1 view .LVU24
  97              		.loc 1 18 7 is_stmt 0 view .LVU25
  98 003c DA68     		ldr	r2, [r3, #12]
  99              		.loc 1 18 13 view .LVU26
 100 003e 42F48072 		orr	r2, r2, #256
 101 0042 DA60     		str	r2, [r3, #12]
  19:src/sys/button.c **** 
  20:src/sys/button.c ****   /* enable EXTI15_10 IRQ */
  21:src/sys/button.c ****   NVIC.ISER[23/32]=(1<<(23%32)); 
 102              		.loc 1 21 3 is_stmt 1 view .LVU27
 103              		.loc 1 21 19 is_stmt 0 view .LVU28
 104 0044 044B     		ldr	r3, .L5+8
 105 0046 4FF40002 		mov	r2, #8388608
 106 004a 1A60     		str	r2, [r3]
  22:src/sys/button.c **** }
 107              		.loc 1 22 1 view .LVU29
 108 004c 7047     		bx	lr
 109              	.L6:
 110 004e 00BF     		.align	2
 111              	.L5:
 112 0050 00000000 		.word	SYSCFG
 113 0054 00000000 		.word	EXTI
 114 0058 00000000 		.word	NVIC
 115              		.cfi_endproc
 116              	.LFE398:
 117              		.size	button_irq_init, .-button_irq_init
 118              		.align	1
 119              		.global	button_poll
 120              		.syntax unified
 121              		.thumb
 122              		.thumb_func
 123              		.type	button_poll, %function
 124              	button_poll:
 125              	.LFB399:
  23:src/sys/button.c **** 
  24:src/sys/button.c **** uint32_t button_poll() {
 126              		.loc 1 24 24 is_stmt 1 view -0
 127              		.cfi_startproc
 128              		@ args = 0, pretend = 0, frame = 0
 129              		@ frame_needed = 0, uses_anonymous_args = 0
 130              		@ link register save eliminated.
  25:src/sys/button.c ****   return (~(GPIOB.IDR>>8) & 1); /* 1 if pressed */
 131              		.loc 1 25 3 view .LVU31
 132              		.loc 1 25 18 is_stmt 0 view .LVU32
 133 005c 034B     		ldr	r3, .L8
 134 005e 1869     		ldr	r0, [r3, #16]
 135              		.loc 1 25 27 view .LVU33
 136 0060 80F48070 		eor	r0, r0, #256
  26:src/sys/button.c **** }
 137              		.loc 1 26 1 view .LVU34
 138 0064 C0F30020 		ubfx	r0, r0, #8, #1
 139 0068 7047     		bx	lr
 140              	.L9:
 141 006a 00BF     		.align	2
 142              	.L8:
 143 006c 00000000 		.word	GPIOB
 144              		.cfi_endproc
 145              	.LFE399:
 146              		.size	button_poll, .-button_poll
 147              	.Letext0:
 148              		.file 2 "/usr/lib/gcc/arm-none-eabi/13.2.1/include/stdint.h"
 149              		.file 3 "src/sys/devices.h"